(lp0
(iquestion
Question
p1
(dp2
S'_Question__isopenquestion'
p3
I00
sS'_Question__answers'
p4
(lp5
S'Disco'
p6
aS'Rock'
p7
aS'Soul'
p8
aS'Latin'
p9
aS'Nederlandstalig'
p10
aS'Funk'
p11
aS'Top 40'
p12
asS'_Question__question'
p13
S'Kies een genre'
p14
sba(iquestion
Question
p15
(dp16
g3
I00
sg4
(lp17
S'Stevie Wonder'
p18
aS'Earth wind and fire'
p19
aS'ABBA'
p20
aS'Amy Whinehouse'
p21
aS'Bruno Mars'
p22
aS'Gloria Estafan'
p23
aS'Queen'
p24
asg13
S'Kies een artiest'
p25
sba(iquestion
Question
p26
(dp27
g3
I00
sg4
(lp28
S'Paars'
p29
aS'Blauw'
p30
aS'Zwart'
p31
aS'Roze'
p32
aS'Rood'
p33
aS'Geel'
p34
asg13
S'Wat is jouw lievelingskleur?'
p35
sba(iquestion
Question
p36
(dp37
g3
I00
sg4
(lp38
S'Een paar in de gang'
p39
aS'Een vent na middernacht'
p40
aS'Iemand om lief te hebben'
p41
aS'Een schat'
p42
aS'Een goede god'
p43
asg13
S'Wat heb je liever?'
p44
sba.